; Function Attrs: nounwind uwtable
define ptr @l_Lean_observing_x3f___rarg___lambda__3(ptr noundef %0, ptr noundef %1, ptr noundef %2, ptr noundef %3, ptr noundef %4, ptr noundef %5) #0 {
  %7 = getelementptr inbounds nuw i8, ptr %0, i64 16
  %8 = load ptr, ptr %7, align 8, !tbaa !4
  %9 = ptrtoint ptr %8 to i64
  %10 = and i64 %9, 1
  %.not = icmp eq i64 %10, 0
  br i1 %.not, label %11, label %lean_inc.exit32

11:                                               ; preds = %6
  %.val.i = load i32, ptr %8, align 4, !tbaa !8
  %12 = icmp sgt i32 %.val.i, 0
  br i1 %12, label %13, label %15, !prof !11

13:                                               ; preds = %11
  %14 = add nuw i32 %.val.i, 1
  store i32 %14, ptr %8, align 4, !tbaa !8
  br label %lean_inc.exit32

15:                                               ; preds = %11
  %.not.i33 = icmp eq i32 %.val.i, 0
  br i1 %.not.i33, label %lean_inc.exit32, label %16

16:                                               ; preds = %15
  tail call void @lean_inc_ref_cold(ptr noundef nonnull %8) #3
  br label %lean_inc.exit32

lean_inc.exit32:                                  ; preds = %16, %15, %13, %6
  %17 = ptrtoint ptr %0 to i64
  %18 = and i64 %17, 1
  %.not48 = icmp eq i64 %18, 0
  br i1 %.not48, label %19, label %lean_dec.exit

19:                                               ; preds = %lean_inc.exit32
  %20 = load i32, ptr %0, align 4, !tbaa !8
  %21 = icmp sgt i32 %20, 1
  br i1 %21, label %22, label %24, !prof !11

22:                                               ; preds = %19
  %23 = add nsw i32 %20, -1
  store i32 %23, ptr %0, align 4, !tbaa !8
  br label %lean_dec.exit

24:                                               ; preds = %19
  %.not.i = icmp eq i32 %20, 0
  br i1 %.not.i, label %lean_dec.exit, label %25

25:                                               ; preds = %24
  tail call void @lean_dec_ref_cold(ptr noundef nonnull %0) #3
  br label %lean_dec.exit

lean_dec.exit:                                    ; preds = %25, %24, %22, %lean_inc.exit32
  %26 = ptrtoint ptr %1 to i64
  %27 = and i64 %26, 1
  %.not49 = icmp eq i64 %27, 0
  br i1 %.not49, label %28, label %lean_inc.exit31

28:                                               ; preds = %lean_dec.exit
  %.val.i34 = load i32, ptr %1, align 4, !tbaa !8
  %29 = icmp sgt i32 %.val.i34, 0
  br i1 %29, label %30, label %32, !prof !11

30:                                               ; preds = %28
  %31 = add nuw i32 %.val.i34, 1
  store i32 %31, ptr %1, align 4, !tbaa !8
  br label %lean_inc.exit31

32:                                               ; preds = %28
  %.not.i35 = icmp eq i32 %.val.i34, 0
  br i1 %.not.i35, label %lean_inc.exit31, label %33

33:                                               ; preds = %32
  tail call void @lean_inc_ref_cold(ptr noundef nonnull %1) #3
  br label %lean_inc.exit31

lean_inc.exit31:                                  ; preds = %33, %32, %30, %lean_dec.exit
  tail call void @lean_inc_heartbeat() #3
  %34 = tail call noalias ptr @mi_malloc_small(i64 noundef 32) #3
  %35 = icmp eq ptr %34, null
  br i1 %35, label %36, label %lean_alloc_closure.exit

36:                                               ; preds = %lean_inc.exit31
  tail call void @lean_internal_panic_out_of_memory() #4
  unreachable

lean_alloc_closure.exit:                          ; preds = %lean_inc.exit31
  %37 = getelementptr inbounds nuw i8, ptr %34, i64 4
  store i32 1, ptr %34, align 4, !tbaa !8
  store i32 -184549344, ptr %37, align 4
  %38 = getelementptr inbounds nuw i8, ptr %34, i64 8
  store ptr @l_Lean_commitWhenSome_x3f___rarg___lambda__3, ptr %38, align 8, !tbaa !4
  %39 = getelementptr inbounds nuw i8, ptr %34, i64 16
  store i16 2, ptr %39, align 8, !tbaa !12
  %40 = getelementptr inbounds nuw i8, ptr %34, i64 18
  store i16 1, ptr %40, align 2, !tbaa !12
  %41 = getelementptr inbounds nuw i8, ptr %34, i64 24
  store ptr %1, ptr %41, align 8, !tbaa !4
  %42 = ptrtoint ptr %2 to i64
  %43 = and i64 %42, 1
  %.not50 = icmp eq i64 %43, 0
  br i1 %.not50, label %44, label %lean_inc.exit30

44:                                               ; preds = %lean_alloc_closure.exit
  %.val.i37 = load i32, ptr %2, align 4, !tbaa !8
  %45 = icmp sgt i32 %.val.i37, 0
  br i1 %45, label %46, label %48, !prof !11

46:                                               ; preds = %44
  %47 = add nuw i32 %.val.i37, 1
  store i32 %47, ptr %2, align 4, !tbaa !8
  br label %51

48:                                               ; preds = %44
  %.not.i38 = icmp eq i32 %.val.i37, 0
  br i1 %.not.i38, label %51, label %49

49:                                               ; preds = %48
  tail call void @lean_inc_ref_cold(ptr noundef nonnull %2) #3
  br label %51

lean_inc.exit30:                                  ; preds = %lean_alloc_closure.exit
  %50 = tail call ptr @lean_apply_4(ptr noundef %2, ptr noundef nonnull inttoptr (i64 1 to ptr), ptr noundef nonnull inttoptr (i64 1 to ptr), ptr noundef %3, ptr noundef nonnull %34) #3
  br label %lean_inc.exit29

51:                                               ; preds = %49, %48, %46
  %52 = tail call ptr @lean_apply_4(ptr noundef nonnull %2, ptr noundef nonnull inttoptr (i64 1 to ptr), ptr noundef nonnull inttoptr (i64 1 to ptr), ptr noundef %3, ptr noundef nonnull %34) #3
  %.val.i40 = load i32, ptr %2, align 4, !tbaa !8
  %53 = icmp sgt i32 %.val.i40, 0
  br i1 %53, label %54, label %56, !prof !11

54:                                               ; preds = %51
  %55 = add nuw i32 %.val.i40, 1
  store i32 %55, ptr %2, align 4, !tbaa !8
  br label %lean_inc.exit29

56:                                               ; preds = %51
  %.not.i41 = icmp eq i32 %.val.i40, 0
  br i1 %.not.i41, label %lean_inc.exit29, label %57

57:                                               ; preds = %56
  tail call void @lean_inc_ref_cold(ptr noundef nonnull %2) #3
  br label %lean_inc.exit29

lean_inc.exit29:                                  ; preds = %57, %56, %54, %lean_inc.exit30
  %58 = phi ptr [ %50, %lean_inc.exit30 ], [ %52, %54 ], [ %52, %56 ], [ %52, %57 ]
  br i1 %.not49, label %59, label %lean_inc.exit

59:                                               ; preds = %lean_inc.exit29
  %.val.i43 = load i32, ptr %1, align 4, !tbaa !8
  %60 = icmp sgt i32 %.val.i43, 0
  br i1 %60, label %61, label %63, !prof !11

61:                                               ; preds = %59
  %62 = add nuw i32 %.val.i43, 1
  store i32 %62, ptr %1, align 4, !tbaa !8
  br label %lean_inc.exit

63:                                               ; preds = %59
  %.not.i44 = icmp eq i32 %.val.i43, 0
  br i1 %.not.i44, label %lean_inc.exit, label %64

64:                                               ; preds = %63
  tail call void @lean_inc_ref_cold(ptr noundef nonnull %1) #3
  br label %lean_inc.exit

lean_inc.exit:                                    ; preds = %64, %63, %61, %lean_inc.exit29
  tail call void @lean_inc_heartbeat() #3
  %65 = tail call noalias ptr @mi_malloc_small(i64 noundef 56) #3
  %66 = icmp eq ptr %65, null
  br i1 %66, label %67, label %lean_alloc_closure.exit46

67:                                               ; preds = %lean_inc.exit
  tail call void @lean_internal_panic_out_of_memory() #4
  unreachable

lean_alloc_closure.exit46:                        ; preds = %lean_inc.exit
  %68 = getelementptr inbounds nuw i8, ptr %65, i64 4
  store i32 1, ptr %65, align 4, !tbaa !8
  store i32 -184549320, ptr %68, align 4
  %69 = getelementptr inbounds nuw i8, ptr %65, i64 8
  store ptr @l_Lean_observing_x3f___rarg___lambda__1___boxed, ptr %69, align 8, !tbaa !4
  %70 = getelementptr inbounds nuw i8, ptr %65, i64 16
  store i16 5, ptr %70, align 8, !tbaa !12
  %71 = getelementptr inbounds nuw i8, ptr %65, i64 18
  store i16 4, ptr %71, align 2, !tbaa !12
  %72 = getelementptr inbounds nuw i8, ptr %65, i64 24
  store ptr %4, ptr %72, align 8, !tbaa !4
  %73 = getelementptr inbounds nuw i8, ptr %65, i64 32
  store ptr %5, ptr %73, align 8, !tbaa !4
  %74 = getelementptr inbounds nuw i8, ptr %65, i64 40
  store ptr %1, ptr %74, align 8, !tbaa !4
  %75 = getelementptr inbounds nuw i8, ptr %65, i64 48
  store ptr %2, ptr %75, align 8, !tbaa !4
  %76 = tail call ptr @lean_apply_3(ptr noundef %8, ptr noundef nonnull inttoptr (i64 1 to ptr), ptr noundef %58, ptr noundef nonnull %65) #3
  tail call void @lean_inc_heartbeat() #3
  %77 = tail call noalias ptr @mi_malloc_small(i64 noundef 32) #3
  %78 = icmp eq ptr %77, null
  br i1 %78, label %79, label %lean_alloc_closure.exit47

79:                                               ; preds = %lean_alloc_closure.exit46
  tail call void @lean_internal_panic_out_of_memory() #4
  unreachable

lean_alloc_closure.exit47:                        ; preds = %lean_alloc_closure.exit46
  %80 = getelementptr inbounds nuw i8, ptr %77, i64 4
  store i32 1, ptr %77, align 4, !tbaa !8
  store i32 -184549344, ptr %80, align 4
  %81 = getelementptr inbounds nuw i8, ptr %77, i64 8
  store ptr @l_Lean_observing_x3f___rarg___lambda__2, ptr %81, align 8, !tbaa !4
  %82 = getelementptr inbounds nuw i8, ptr %77, i64 16
  store i16 2, ptr %82, align 8, !tbaa !12
  %83 = getelementptr inbounds nuw i8, ptr %77, i64 18
  store i16 1, ptr %83, align 2, !tbaa !12
  %84 = getelementptr inbounds nuw i8, ptr %77, i64 24
  store ptr %1, ptr %84, align 8, !tbaa !4
  %85 = tail call ptr @lean_apply_4(ptr noundef %2, ptr noundef nonnull inttoptr (i64 1 to ptr), ptr noundef nonnull inttoptr (i64 1 to ptr), ptr noundef %76, ptr noundef nonnull %77) #3
  ret ptr %85
}